; Function Attrs: noreturn nounwind uwtable
define void @png_error(ptr noalias noundef %0, ptr noundef %1) local_unnamed_addr #0 {
  %.not = icmp eq ptr %0, null
  br i1 %.not, label %7, label %3

3:                                                ; preds = %2
  %4 = getelementptr inbounds nuw i8, ptr %0, i64 224
  %5 = load ptr, ptr %4, align 8, !tbaa !3
  %.not8 = icmp eq ptr %5, null
  br i1 %.not8, label %7, label %6

6:                                                ; preds = %3
  tail call void %5(ptr noundef nonnull %0, ptr noundef %1) #21
  br label %7

7:                                                ; preds = %6, %3, %2
  tail call fastcc void @png_default_error(ptr noundef %0, ptr noundef %1) #22
  unreachable
}